; Function Attrs: nounwind uwtable
define dso_local ptr @quote_path(ptr noundef %0, ptr noundef %1, ptr noundef initializes((8, 16)) %2, i32 noundef %3) local_unnamed_addr #0 {
  %5 = alloca %struct.strbuf, align 8
  call void @llvm.lifetime.start.p0(i64 24, ptr nonnull %5) #12
  call void @llvm.memcpy.p0.p0.i64(ptr noundef nonnull align 8 dereferenceable(24) %5, ptr noundef nonnull align 8 dereferenceable(24) @__const.quote_path.sb, i64 24, i1 false)
  %6 = call ptr @relative_path(ptr noundef %0, ptr noundef %1, ptr noundef nonnull %5) #12
  %7 = and i32 %3, 1
  %.not = icmp eq i32 %7, 0
  br i1 %.not, label %11, label %8

8:                                                ; preds = %4
  %9 = call ptr @strchr(ptr noundef nonnull dereferenceable(1) %6, i32 noundef 32) #13
  %10 = icmp ne ptr %9, null
  br label %11

11:                                               ; preds = %8, %4
  %12 = phi i1 [ false, %4 ], [ %10, %8 ]
  %13 = getelementptr inbounds nuw i8, ptr %2, i64 8
  store i64 0, ptr %13, align 8, !tbaa !12
  %14 = getelementptr inbounds nuw i8, ptr %2, i64 16
  %15 = load ptr, ptr %14, align 8, !tbaa !4
  %.not9.i = icmp eq ptr %15, @strbuf_slopbuf
  br i1 %.not9.i, label %strbuf_setlen.exit, label %16

16:                                               ; preds = %11
  store i8 0, ptr %15, align 1, !tbaa !13
  br label %strbuf_setlen.exit

strbuf_setlen.exit:                               ; preds = %11, %16
  br i1 %12, label %17, label %.critedge

17:                                               ; preds = %strbuf_setlen.exit
  %18 = load i64, ptr %2, align 8, !tbaa !11
  %.not.i.i = icmp eq i64 %18, 0
  br i1 %.not.i.i, label %strbuf_avail.exit.thread.i, label %strbuf_avail.exit.i

strbuf_avail.exit.i:                              ; preds = %17
  %19 = load i64, ptr %13, align 8, !tbaa !12
  %.neg.i = add i64 %19, 1
  %.not.i = icmp eq i64 %18, %.neg.i
  br i1 %.not.i, label %strbuf_avail.exit.thread.i, label %strbuf_addch.exit

strbuf_avail.exit.thread.i:                       ; preds = %strbuf_avail.exit.i, %17
  call void @strbuf_grow(ptr noundef nonnull %2, i64 noundef 1) #12
  %.pre.i = load i64, ptr %13, align 8, !tbaa !12
  %.pre7.i = add i64 %.pre.i, 1
  br label %strbuf_addch.exit

strbuf_addch.exit:                                ; preds = %strbuf_avail.exit.i, %strbuf_avail.exit.thread.i
  %.pre-phi.i = phi i64 [ %.pre7.i, %strbuf_avail.exit.thread.i ], [ %.neg.i, %strbuf_avail.exit.i ]
  %20 = phi i64 [ %.pre.i, %strbuf_avail.exit.thread.i ], [ %19, %strbuf_avail.exit.i ]
  %21 = load ptr, ptr %14, align 8, !tbaa !4
  store i64 %.pre-phi.i, ptr %13, align 8, !tbaa !12
  %22 = getelementptr inbounds nuw i8, ptr %21, i64 %20
  store i8 34, ptr %22, align 1, !tbaa !13
  %23 = load ptr, ptr %14, align 8, !tbaa !4
  %24 = load i64, ptr %13, align 8, !tbaa !12
  %25 = getelementptr inbounds nuw i8, ptr %23, i64 %24
  store i8 0, ptr %25, align 1, !tbaa !13
  %26 = call i64 @strlen(ptr noundef nonnull dereferenceable(1) %6) #13
  %27 = call fastcc i64 @quote_c_style_counted(ptr noundef nonnull %6, i64 noundef %26, ptr noundef nonnull %2, ptr noundef null, i32 noundef 1)
  %28 = load i64, ptr %2, align 8, !tbaa !11
  %.not.i.i13 = icmp eq i64 %28, 0
  br i1 %.not.i.i13, label %strbuf_avail.exit.thread.i18, label %strbuf_avail.exit.i14

strbuf_avail.exit.i14:                            ; preds = %strbuf_addch.exit
  %29 = load i64, ptr %13, align 8, !tbaa !12
  %.neg.i15 = add i64 %29, 1
  %.not.i16 = icmp eq i64 %28, %.neg.i15
  br i1 %.not.i16, label %strbuf_avail.exit.thread.i18, label %strbuf_addch.exit22

strbuf_avail.exit.thread.i18:                     ; preds = %strbuf_avail.exit.i14, %strbuf_addch.exit
  call void @strbuf_grow(ptr noundef nonnull %2, i64 noundef 1) #12
  %.pre.i20 = load i64, ptr %13, align 8, !tbaa !12
  %.pre7.i21 = add i64 %.pre.i20, 1
  br label %strbuf_addch.exit22

strbuf_addch.exit22:                              ; preds = %strbuf_avail.exit.i14, %strbuf_avail.exit.thread.i18
  %.pre-phi.i17 = phi i64 [ %.pre7.i21, %strbuf_avail.exit.thread.i18 ], [ %.neg.i15, %strbuf_avail.exit.i14 ]
  %30 = phi i64 [ %.pre.i20, %strbuf_avail.exit.thread.i18 ], [ %29, %strbuf_avail.exit.i14 ]
  %31 = load ptr, ptr %14, align 8, !tbaa !4
  store i64 %.pre-phi.i17, ptr %13, align 8, !tbaa !12
  %32 = getelementptr inbounds nuw i8, ptr %31, i64 %30
  store i8 34, ptr %32, align 1, !tbaa !13
  %33 = load ptr, ptr %14, align 8, !tbaa !4
  %34 = load i64, ptr %13, align 8, !tbaa !12
  %35 = getelementptr inbounds nuw i8, ptr %33, i64 %34
  store i8 0, ptr %35, align 1, !tbaa !13
  br label %38

.critedge:                                        ; preds = %strbuf_setlen.exit
  %36 = call i64 @strlen(ptr noundef nonnull dereferenceable(1) %6) #13
  %37 = call fastcc i64 @quote_c_style_counted(ptr noundef nonnull %6, i64 noundef %36, ptr noundef nonnull %2, ptr noundef null, i32 noundef 0)
  br label %38

38:                                               ; preds = %.critedge, %strbuf_addch.exit22
  call void @strbuf_release(ptr noundef nonnull %5) #12
  %39 = load ptr, ptr %14, align 8, !tbaa !4
  call void @llvm.lifetime.end.p0(i64 24, ptr nonnull %5) #12
  ret ptr %39
}